target datalayout = "e-m:e-p270:32:32-p271:32:32-p272:64:64-i64:64-i128:128-f80:128-n8:16:32:64-S128"
target triple = "x86_64-pc-linux-gnu"

; Function Attrs: mustprogress nounwind uwtable
define noundef i32 @_ZN7Archive11IsSignatureEPKhm(ptr noundef %0, i64 noundef %1) #2 align 2 {
  %3 = alloca ptr, align 8
  %4 = alloca i64, align 8
  %5 = alloca i32, align 4
  store ptr %0, ptr %3, align 8
  store i64 %1, ptr %4, align 8
  store i32 0, ptr %5, align 4
  %6 = load i64, ptr %4, align 8
  %7 = icmp uge i64 %6, 1
  br i1 %7, label %8, label %101

8:                                                ; preds = %2
  %9 = load ptr, ptr %3, align 8
  %10 = getelementptr inbounds i8, ptr %9, i64 0
  %11 = load i8, ptr %10, align 1
  %12 = zext i8 %11 to i32
  %13 = icmp eq i32 %12, 82
  br i1 %13, label %14, label %101

14:                                               ; preds = %8
  %15 = load i64, ptr %4, align 8
  %16 = icmp uge i64 %15, 4
  br i1 %16, label %17, label %36

17:                                               ; preds = %14
  %18 = load ptr, ptr %3, align 8
  %19 = getelementptr inbounds i8, ptr %18, i64 1
  %20 = load i8, ptr %19, align 1
  %21 = zext i8 %20 to i32
  %22 = icmp eq i32 %21, 69
  br i1 %22, label %23, label %36

23:                                               ; preds = %17
  %24 = load ptr, ptr %3, align 8
  %25 = getelementptr inbounds i8, ptr %24, i64 2
  %26 = load i8, ptr %25, align 1
  %27 = zext i8 %26 to i32
  %28 = icmp eq i32 %27, 126
  br i1 %28, label %29, label %36

29:                                               ; preds = %23
  %30 = load ptr, ptr %3, align 8
  %31 = getelementptr inbounds i8, ptr %30, i64 3
  %32 = load i8, ptr %31, align 1
  %33 = zext i8 %32 to i32
  %34 = icmp eq i32 %33, 94
  br i1 %34, label %35, label %36

35:                                               ; preds = %29
  store i32 1, ptr %5, align 4
  br label %100

36:                                               ; preds = %29, %23, %17, %14
  %37 = load i64, ptr %4, align 8
  %38 = icmp uge i64 %37, 7
  br i1 %38, label %39, label %99

39:                                               ; preds = %36
  %40 = load ptr, ptr %3, align 8
  %41 = getelementptr inbounds i8, ptr %40, i64 1
  %42 = load i8, ptr %41, align 1
  %43 = zext i8 %42 to i32
  %44 = icmp eq i32 %43, 97
  br i1 %44, label %45, label %99

45:                                               ; preds = %39
  %46 = load ptr, ptr %3, align 8
  %47 = getelementptr inbounds i8, ptr %46, i64 2
  %48 = load i8, ptr %47, align 1
  %49 = zext i8 %48 to i32
  %50 = icmp eq i32 %49, 114
  br i1 %50, label %51, label %99

51:                                               ; preds = %45
  %52 = load ptr, ptr %3, align 8
  %53 = getelementptr inbounds i8, ptr %52, i64 3
  %54 = load i8, ptr %53, align 1
  %55 = zext i8 %54 to i32
  %56 = icmp eq i32 %55, 33
  br i1 %56, label %57, label %99

57:                                               ; preds = %51
  %58 = load ptr, ptr %3, align 8
  %59 = getelementptr inbounds i8, ptr %58, i64 4
  %60 = load i8, ptr %59, align 1
  %61 = zext i8 %60 to i32
  %62 = icmp eq i32 %61, 26
  br i1 %62, label %63, label %99

63:                                               ; preds = %57
  %64 = load ptr, ptr %3, align 8
  %65 = getelementptr inbounds i8, ptr %64, i64 5
  %66 = load i8, ptr %65, align 1
  %67 = zext i8 %66 to i32
  %68 = icmp eq i32 %67, 7
  br i1 %68, label %69, label %99

69:                                               ; preds = %63
  %70 = load ptr, ptr %3, align 8
  %71 = getelementptr inbounds i8, ptr %70, i64 6
  %72 = load i8, ptr %71, align 1
  %73 = zext i8 %72 to i32
  %74 = icmp eq i32 %73, 0
  br i1 %74, label %75, label %76

75:                                               ; preds = %69
  store i32 2, ptr %5, align 4
  br label %98

76:                                               ; preds = %69
  %77 = load ptr, ptr %3, align 8
  %78 = getelementptr inbounds i8, ptr %77, i64 6
  %79 = load i8, ptr %78, align 1
  %80 = zext i8 %79 to i32
  %81 = icmp eq i32 %80, 1
  br i1 %81, label %82, label %83

82:                                               ; preds = %76
  store i32 3, ptr %5, align 4
  br label %97

83:                                               ; preds = %76
  %84 = load ptr, ptr %3, align 8
  %85 = getelementptr inbounds i8, ptr %84, i64 6
  %86 = load i8, ptr %85, align 1
  %87 = zext i8 %86 to i32
  %88 = icmp sgt i32 %87, 1
  br i1 %88, label %89, label %96

89:                                               ; preds = %83
  %90 = load ptr, ptr %3, align 8
  %91 = getelementptr inbounds i8, ptr %90, i64 6
  %92 = load i8, ptr %91, align 1
  %93 = zext i8 %92 to i32
  %94 = icmp slt i32 %93, 5
  br i1 %94, label %95, label %96

95:                                               ; preds = %89
  store i32 4, ptr %5, align 4
  br label %96

96:                                               ; preds = %95, %89, %83
  br label %97

97:                                               ; preds = %96, %82
  br label %98

98:                                               ; preds = %97, %75
  br label %99

99:                                               ; preds = %98, %63, %57, %51, %45, %39, %36
  br label %100

100:                                              ; preds = %99, %35
  br label %101

101:                                              ; preds = %100, %8, %2
  %102 = load i32, ptr %5, align 4
  ret i32 %102
}