; Function Attrs: mustprogress nofree norecurse nosync nounwind willreturn memory(argmem: read) uwtable
define noundef i32 @_ZN7Archive11IsSignatureEPKhm(ptr nocapture noundef readonly %0, i64 noundef %1) local_unnamed_addr #9 align 2 {
  %.not = icmp eq i64 %1, 0
  br i1 %.not, label %.thread, label %3

3:                                                ; preds = %2
  %4 = load i8, ptr %0, align 1
  %5 = icmp eq i8 %4, 82
  %6 = icmp ugt i64 %1, 3
  %or.cond = and i1 %6, %5
  br i1 %or.cond, label %7, label %.thread

7:                                                ; preds = %3
  %8 = getelementptr inbounds i8, ptr %0, i64 1
  %9 = load i8, ptr %8, align 1
  %10 = icmp eq i8 %9, 69
  br i1 %10, label %11, label %19

11:                                               ; preds = %7
  %12 = getelementptr inbounds i8, ptr %0, i64 2
  %13 = load i8, ptr %12, align 1
  %14 = icmp eq i8 %13, 126
  br i1 %14, label %15, label %19

15:                                               ; preds = %11
  %16 = getelementptr inbounds i8, ptr %0, i64 3
  %17 = load i8, ptr %16, align 1
  %18 = icmp eq i8 %17, 94
  br i1 %18, label %.thread, label %19

19:                                               ; preds = %15, %11, %7
  %20 = icmp ugt i64 %1, 6
  %21 = icmp eq i8 %9, 97
  %or.cond18 = and i1 %20, %21
  br i1 %or.cond18, label %22, label %.thread

22:                                               ; preds = %19
  %23 = getelementptr inbounds i8, ptr %0, i64 2
  %24 = load i8, ptr %23, align 1
  %25 = icmp eq i8 %24, 114
  br i1 %25, label %26, label %.thread

26:                                               ; preds = %22
  %27 = getelementptr inbounds i8, ptr %0, i64 3
  %28 = load i8, ptr %27, align 1
  %29 = icmp eq i8 %28, 33
  br i1 %29, label %30, label %.thread

30:                                               ; preds = %26
  %31 = getelementptr inbounds i8, ptr %0, i64 4
  %32 = load i8, ptr %31, align 1
  %33 = icmp eq i8 %32, 26
  br i1 %33, label %34, label %.thread

34:                                               ; preds = %30
  %35 = getelementptr inbounds i8, ptr %0, i64 5
  %36 = load i8, ptr %35, align 1
  %37 = icmp eq i8 %36, 7
  br i1 %37, label %38, label %.thread

38:                                               ; preds = %34
  %39 = getelementptr inbounds i8, ptr %0, i64 6
  %40 = load i8, ptr %39, align 1
  switch i8 %40, label %42 [
    i8 0, label %.thread
    i8 1, label %41
  ]

41:                                               ; preds = %38
  br label %.thread

42:                                               ; preds = %38
  %43 = icmp ult i8 %40, 5
  %spec.select = select i1 %43, i32 4, i32 0
  br label %.thread

.thread:                                          ; preds = %42, %38, %15, %41, %34, %30, %26, %22, %19, %3, %2
  %.0 = phi i32 [ 3, %41 ], [ 0, %34 ], [ 0, %30 ], [ 0, %26 ], [ 0, %22 ], [ 0, %19 ], [ 0, %3 ], [ 0, %2 ], [ 1, %15 ], [ 2, %38 ], [ %spec.select, %42 ]
  ret i32 %.0
}